target datalayout = "e-m:e-p270:32:32-p271:32:32-p272:64:64-i64:64-i128:128-f80:128-n8:16:32:64-S128"
target triple = "x86_64-pc-linux-gnu"

%struct._object = type { %union.anon, ptr }
%union.anon = type { i64 }
%struct.PyMutex = type { i8 }
%struct.EVPobject = type { %struct._object, ptr, i8, %struct.PyMutex }

; Function Attrs: nounwind uwtable
define internal ptr @EVP_get_block_size(ptr noundef %0, ptr noundef %1) #0 {
  %3 = alloca ptr, align 8
  %4 = alloca ptr, align 8
  %5 = alloca i64, align 8
  store ptr %0, ptr %3, align 8, !tbaa !3
  store ptr %1, ptr %4, align 8, !tbaa !3
  call void @llvm.lifetime.start.p0(i64 8, ptr %5) #9
  %6 = load ptr, ptr %3, align 8, !tbaa !3
  %7 = getelementptr inbounds nuw %struct.EVPobject, ptr %6, i32 0, i32 1
  %8 = load ptr, ptr %7, align 8, !tbaa !69
  %9 = call ptr @EVP_MD_CTX_get0_md(ptr noundef %8)
  %10 = call i32 @EVP_MD_get_block_size(ptr noundef %9)
  %11 = sext i32 %10 to i64
  store i64 %11, ptr %5, align 8, !tbaa !32
  %12 = load i64, ptr %5, align 8, !tbaa !32
  %13 = call ptr @PyLong_FromLong(i64 noundef %12)
  call void @llvm.lifetime.end.p0(i64 8, ptr %5) #9
  ret ptr %13
}